target datalayout = "e-m:e-p270:32:32-p271:32:32-p272:64:64-i64:64-i128:128-f80:128-n8:16:32:64-S128"
target triple = "x86_64-pc-linux-gnu"

%struct.Aes = type { [60 x i32], i32, i32, [8 x i8], [4 x i32], [4 x i32], [2 x i32], i32, [4 x i8], %struct.Gcm, ptr, [8 x i8] }
%struct.Gcm = type { [16 x i8], [32 x [16 x i8]] }

@__const.test_wc_AesSetIV.key16 = private unnamed_addr constant [16 x i8] c"0123456789abcdef", align 16
@__const.test_wc_AesSetIV.iv1 = private unnamed_addr constant [17 x i8] c"1234567890abcdef\00", align 16
@__const.test_wc_AesSetIV.iv2 = private unnamed_addr constant [17 x i8] c"0987654321fedcba\00", align 16

; Function Attrs: nounwind uwtable
define internal i32 @test_wc_AesSetIV() #0 {
  %1 = alloca i32, align 4
  %2 = alloca i32, align 4
  %3 = alloca %struct.Aes, align 16
  %4 = alloca i32, align 4
  %5 = alloca [16 x i8], align 16
  %6 = alloca [17 x i8], align 16
  %7 = alloca [17 x i8], align 16
  %8 = alloca i32, align 4
  call void @llvm.lifetime.start.p0(i64 4, ptr %2) #14
  store i32 3, ptr %2, align 4, !tbaa !10
  call void @llvm.lifetime.start.p0(i64 848, ptr %3) #14
  call void @llvm.lifetime.start.p0(i64 4, ptr %4) #14
  store i32 0, ptr %4, align 4, !tbaa !10
  call void @llvm.lifetime.start.p0(i64 16, ptr %5) #14
  call void @llvm.memcpy.p0.p0.i64(ptr align 16 %5, ptr align 16 @__const.test_wc_AesSetIV.key16, i64 16, i1 false)
  call void @llvm.lifetime.start.p0(i64 17, ptr %6) #14
  call void @llvm.memcpy.p0.p0.i64(ptr align 16 %6, ptr align 16 @__const.test_wc_AesSetIV.iv1, i64 17, i1 false)
  call void @llvm.lifetime.start.p0(i64 17, ptr %7) #14
  call void @llvm.memcpy.p0.p0.i64(ptr align 16 %7, ptr align 16 @__const.test_wc_AesSetIV.iv2, i64 17, i1 false)
  %9 = call i32 @wc_AesInit(ptr noundef %3, ptr noundef null, i32 noundef -2)
  store i32 %9, ptr %4, align 4, !tbaa !10
  %10 = load i32, ptr %4, align 4, !tbaa !10
  %11 = icmp ne i32 %10, 0
  br i1 %11, label %12, label %14

12:                                               ; preds = %0
  %13 = load i32, ptr %4, align 4, !tbaa !10
  store i32 %13, ptr %1, align 4
  store i32 1, ptr %8, align 4
  br label %40

14:                                               ; preds = %0
  %15 = getelementptr inbounds [16 x i8], ptr %5, i64 0, i64 0
  %16 = getelementptr inbounds [17 x i8], ptr %6, i64 0, i64 0
  %17 = call i32 @wc_AesSetKey(ptr noundef %3, ptr noundef %15, i32 noundef 16, ptr noundef %16, i32 noundef 0)
  store i32 %17, ptr %4, align 4, !tbaa !10
  %18 = load i32, ptr %4, align 4, !tbaa !10
  %19 = icmp eq i32 %18, 0
  br i1 %19, label %20, label %23

20:                                               ; preds = %14
  %21 = getelementptr inbounds [17 x i8], ptr %7, i64 0, i64 0
  %22 = call i32 @wc_AesSetIV(ptr noundef %3, ptr noundef %21)
  store i32 %22, ptr %4, align 4, !tbaa !10
  br label %23

23:                                               ; preds = %20, %14
  %24 = load i32, ptr %4, align 4, !tbaa !10
  %25 = icmp eq i32 %24, 0
  br i1 %25, label %26, label %35

26:                                               ; preds = %23
  %27 = getelementptr inbounds [17 x i8], ptr %6, i64 0, i64 0
  %28 = call i32 @wc_AesSetIV(ptr noundef null, ptr noundef %27)
  store i32 %28, ptr %4, align 4, !tbaa !10
  %29 = load i32, ptr %4, align 4, !tbaa !10
  %30 = icmp eq i32 %29, -173
  br i1 %30, label %31, label %33

31:                                               ; preds = %26
  %32 = call i32 @wc_AesSetIV(ptr noundef %3, ptr noundef null)
  store i32 %32, ptr %4, align 4, !tbaa !10
  br label %34

33:                                               ; preds = %26
  store i32 -1, ptr %4, align 4, !tbaa !10
  br label %34

34:                                               ; preds = %33, %31
  br label %35

35:                                               ; preds = %34, %23
  call void @wc_AesFree(ptr noundef %3)
  %36 = load i32, ptr %4, align 4, !tbaa !10
  %37 = icmp eq i32 %36, 0
  %38 = select i1 %37, i32 1, i32 0
  store i32 %38, ptr %2, align 4, !tbaa !10
  %39 = load i32, ptr %2, align 4, !tbaa !10
  store i32 %39, ptr %1, align 4
  store i32 1, ptr %8, align 4
  br label %40

40:                                               ; preds = %35, %12
  call void @llvm.lifetime.end.p0(i64 17, ptr %7) #14
  call void @llvm.lifetime.end.p0(i64 17, ptr %6) #14
  call void @llvm.lifetime.end.p0(i64 16, ptr %5) #14
  call void @llvm.lifetime.end.p0(i64 4, ptr %4) #14
  call void @llvm.lifetime.end.p0(i64 848, ptr %3) #14
  call void @llvm.lifetime.end.p0(i64 4, ptr %2) #14
  %41 = load i32, ptr %1, align 4
  ret i32 %41
}