; Function Attrs: nounwind uwtable
define internal i32 @test_wc_AesSetIV() #0 {
  %1 = alloca %struct.Aes, align 16
  %2 = alloca [16 x i8], align 16
  %3 = alloca [17 x i8], align 16
  %4 = alloca [17 x i8], align 16
  call void @llvm.lifetime.start.p0(i64 848, ptr nonnull %1) #27
  call void @llvm.lifetime.start.p0(i64 16, ptr nonnull %2) #27
  call void @llvm.memcpy.p0.p0.i64(ptr noundef nonnull align 16 dereferenceable(16) %2, ptr noundef nonnull align 16 dereferenceable(16) @__const.test_wc_GmacSetKey.key16, i64 16, i1 false)
  call void @llvm.lifetime.start.p0(i64 17, ptr nonnull %3) #27
  call void @llvm.memcpy.p0.p0.i64(ptr noundef nonnull align 16 dereferenceable(17) %3, ptr noundef nonnull align 16 dereferenceable(17) @__const.test_wc_AesCbcEncryptDecrypt.iv, i64 17, i1 false)
  call void @llvm.lifetime.start.p0(i64 17, ptr nonnull %4) #27
  call void @llvm.memcpy.p0.p0.i64(ptr noundef nonnull align 16 dereferenceable(17) %4, ptr noundef nonnull align 16 dereferenceable(17) @__const.test_wc_AesSetIV.iv2, i64 17, i1 false)
  %5 = call i32 @wc_AesInit(ptr noundef nonnull %1, ptr noundef null, i32 noundef -2) #27
  %.not = icmp eq i32 %5, 0
  br i1 %.not, label %6, label %19

6:                                                ; preds = %0
  %7 = call i32 @wc_AesSetKey(ptr noundef nonnull %1, ptr noundef nonnull %2, i32 noundef 16, ptr noundef nonnull %3, i32 noundef 0) #27
  %8 = icmp eq i32 %7, 0
  br i1 %8, label %9, label %.critedge

9:                                                ; preds = %6
  %10 = call i32 @wc_AesSetIV(ptr noundef nonnull %1, ptr noundef nonnull %4) #27
  %11 = icmp eq i32 %10, 0
  br i1 %11, label %12, label %.critedge

12:                                               ; preds = %9
  %13 = call i32 @wc_AesSetIV(ptr noundef null, ptr noundef nonnull %3) #27
  %14 = icmp eq i32 %13, -173
  br i1 %14, label %15, label %.critedge

15:                                               ; preds = %12
  %16 = call i32 @wc_AesSetIV(ptr noundef nonnull %1, ptr noundef null) #27
  %17 = icmp eq i32 %16, 0
  %18 = zext i1 %17 to i32
  br label %.critedge

.critedge:                                        ; preds = %6, %12, %15, %9
  %.1 = phi i32 [ %18, %15 ], [ 0, %9 ], [ 0, %12 ], [ 0, %6 ]
  call void @wc_AesFree(ptr noundef nonnull %1) #27
  br label %19

19:                                               ; preds = %0, %.critedge
  %.08 = phi i32 [ %.1, %.critedge ], [ %5, %0 ]
  call void @llvm.lifetime.end.p0(i64 17, ptr nonnull %4) #27
  call void @llvm.lifetime.end.p0(i64 17, ptr nonnull %3) #27
  call void @llvm.lifetime.end.p0(i64 16, ptr nonnull %2) #27
  call void @llvm.lifetime.end.p0(i64 848, ptr nonnull %1) #27
  ret i32 %.08
}